(lp0
S'poi'
p1
aS'salary'
p2
aS'total_stock_value'
p3
aS'total_payments'
p4
aS'exercised_stock_options'
p5
aS'bonus'
p6
aS'shared_receipt_with_poi'
p7
aS'expenses'
p8
aS'from_this_person_to_poi'
p9
aS'from_poi_to_this_person'
p10
aS'other'
p11
aS'from_messages'
p12
aS'to_messages'
p13
aS'deferral_payments'
p14
aS'restricted_stock'
p15
aS'restricted_stock_deferred'
p16
aS'loan_advances'
p17
aS'director_fees'
p18
aS'deferred_income'
p19
aS'long_term_incentive'
p20
aS'fraction_sum_salary_and_bonus_in_total_payments'
p21
aS'fraction_email_poi_to_this_person'
p22
aS'fraction_email_to_poi'
p23
a.